target datalayout = "e-m:e-p270:32:32-p271:32:32-p272:64:64-i64:64-i128:128-f80:128-n8:16:32:64-S128"
target triple = "x86_64-pc-linux-gnu"

%"class.std::__shared_count" = type { ptr }
%"struct.osgeo::proj::operation::CoordinateOperationFactory::Private::Context" = type { ptr, ptr, ptr, i8, i8, i8, i8, i32, %"class.std::map", %"class.std::vector.48" }
%"class.std::map" = type { %"class.std::_Rb_tree" }
%"class.std::_Rb_tree" = type { %"struct.std::_Rb_tree<std::pair<osgeo::proj::io::AuthorityFactory::ObjectType, std::__cxx11::basic_string<char>>, std::pair<const std::pair<osgeo::proj::io::AuthorityFactory::ObjectType, std::__cxx11::basic_string<char>>, std::__cxx11::list<std::pair<std::__cxx11::basic_string<char>, std::__cxx11::basic_string<char>>>>, std::_Select1st<std::pair<const std::pair<osgeo::proj::io::AuthorityFactory::ObjectType, std::__cxx11::basic_string<char>>, std::__cxx11::list<std::pair<std::__cxx11::basic_string<char>, std::__cxx11::basic_string<char>>>>>, std::less<std::pair<osgeo::proj::io::AuthorityFactory::ObjectType, std::__cxx11::basic_string<char>>>>::_Rb_tree_impl" }
%"struct.std::_Rb_tree<std::pair<osgeo::proj::io::AuthorityFactory::ObjectType, std::__cxx11::basic_string<char>>, std::pair<const std::pair<osgeo::proj::io::AuthorityFactory::ObjectType, std::__cxx11::basic_string<char>>, std::__cxx11::list<std::pair<std::__cxx11::basic_string<char>, std::__cxx11::basic_string<char>>>>, std::_Select1st<std::pair<const std::pair<osgeo::proj::io::AuthorityFactory::ObjectType, std::__cxx11::basic_string<char>>, std::__cxx11::list<std::pair<std::__cxx11::basic_string<char>, std::__cxx11::basic_string<char>>>>>, std::less<std::pair<osgeo::proj::io::AuthorityFactory::ObjectType, std::__cxx11::basic_string<char>>>>::_Rb_tree_impl" = type { [8 x i8], %"struct.std::_Rb_tree_header" }
%"struct.std::_Rb_tree_header" = type { %"struct.std::_Rb_tree_node_base", i64 }
%"struct.std::_Rb_tree_node_base" = type { i32, ptr, ptr, ptr }
%"class.std::vector.48" = type { %"struct.std::_Vector_base.49" }
%"struct.std::_Vector_base.49" = type { %"struct.std::_Vector_base<dropbox::oxygen::nn<std::shared_ptr<osgeo::proj::crs::GeographicCRS>>, std::allocator<dropbox::oxygen::nn<std::shared_ptr<osgeo::proj::crs::GeographicCRS>>>>::_Vector_impl" }
%"struct.std::_Vector_base<dropbox::oxygen::nn<std::shared_ptr<osgeo::proj::crs::GeographicCRS>>, std::allocator<dropbox::oxygen::nn<std::shared_ptr<osgeo::proj::crs::GeographicCRS>>>>::_Vector_impl" = type { %"struct.std::_Vector_base<dropbox::oxygen::nn<std::shared_ptr<osgeo::proj::crs::GeographicCRS>>, std::allocator<dropbox::oxygen::nn<std::shared_ptr<osgeo::proj::crs::GeographicCRS>>>>::_Vector_impl_data" }
%"struct.std::_Vector_base<dropbox::oxygen::nn<std::shared_ptr<osgeo::proj::crs::GeographicCRS>>, std::allocator<dropbox::oxygen::nn<std::shared_ptr<osgeo::proj::crs::GeographicCRS>>>>::_Vector_impl_data" = type { ptr, ptr, ptr }
%"class.std::shared_ptr.222" = type { %"class.std::__shared_ptr.223" }
%"class.std::__shared_ptr.223" = type { ptr, %"class.std::__shared_count" }
%"class.dropbox::oxygen::nn.321" = type { %"class.std::shared_ptr.222" }
%struct.SetGeogCRSOfVertCRS = type <{ ptr, i8, [7 x i8] }>
%"class.std::_Sp_counted_base" = type { ptr, i32, i32 }

@__libc_single_threaded = external global i8, align 1

; Function Attrs: alwaysinline mustprogress nounwind uwtable
define linkonce_odr noundef i32 @_ZN9__gnu_cxx18__exchange_and_addEPVii(ptr noundef %0, i32 noundef %1) #16 comdat {
  %3 = alloca ptr, align 8
  %4 = alloca i32, align 4
  %5 = alloca i32, align 4
  %6 = alloca i32, align 4
  store ptr %0, ptr %3, align 8, !tbaa !658
  store i32 %1, ptr %4, align 4, !tbaa !341
  %7 = load ptr, ptr %3, align 8, !tbaa !658
  %8 = load i32, ptr %4, align 4, !tbaa !341
  store i32 %8, ptr %5, align 4, !tbaa !341
  %9 = load i32, ptr %5, align 4
  %10 = atomicrmw volatile add ptr %7, i32 %9 acq_rel, align 4
  store i32 %10, ptr %6, align 4
  %11 = load i32, ptr %6, align 4, !tbaa !341
  ret i32 %11
}

; Function Attrs: alwaysinline mustprogress nounwind uwtable
define linkonce_odr noundef i32 @_ZN9__gnu_cxx25__exchange_and_add_singleEPii(ptr noundef %0, i32 noundef %1) #16 comdat {
  %3 = alloca ptr, align 8
  %4 = alloca i32, align 4
  %5 = alloca i32, align 4
  store ptr %0, ptr %3, align 8, !tbaa !658
  store i32 %1, ptr %4, align 4, !tbaa !341
  call void @llvm.lifetime.start.p0(i64 4, ptr %5) #25
  %6 = load ptr, ptr %3, align 8, !tbaa !658
  %7 = load i32, ptr %6, align 4, !tbaa !341
  store i32 %7, ptr %5, align 4, !tbaa !341
  %8 = load i32, ptr %4, align 4, !tbaa !341
  %9 = load ptr, ptr %3, align 8, !tbaa !658
  %10 = load i32, ptr %9, align 4, !tbaa !341
  %11 = add nsw i32 %10, %8
  store i32 %11, ptr %9, align 4, !tbaa !341
  %12 = load i32, ptr %5, align 4, !tbaa !341
  call void @llvm.lifetime.end.p0(i64 4, ptr %5) #25
  ret i32 %12
}

; Function Attrs: alwaysinline mustprogress nounwind uwtable
define linkonce_odr noundef zeroext i1 @_ZN9__gnu_cxx20__is_single_threadedEv() #16 comdat {
  %1 = load i8, ptr @__libc_single_threaded, align 1, !tbaa !541
  %2 = icmp ne i8 %1, 0
  ret i1 %2
}

; Function Attrs: noinline noreturn nounwind uwtable
define linkonce_odr hidden void @__clang_call_terminate(ptr noundef %0) #14 comdat {
  %2 = call ptr @__cxa_begin_catch(ptr %0) #25
  call void @_ZSt9terminatev() #26
  unreachable
}

; Function Attrs: alwaysinline mustprogress uwtable
define linkonce_odr noundef i32 @_ZN9__gnu_cxx27__exchange_and_add_dispatchEPii(ptr noundef %0, i32 noundef %1) #15 comdat {
  %3 = alloca i32, align 4
  %4 = alloca ptr, align 8
  %5 = alloca i32, align 4
  store ptr %0, ptr %4, align 8, !tbaa !658
  store i32 %1, ptr %5, align 4, !tbaa !341
  %6 = call noundef zeroext i1 @_ZN9__gnu_cxx20__is_single_threadedEv() #25
  br i1 %6, label %7, label %11

7:                                                ; preds = %2
  %8 = load ptr, ptr %4, align 8, !tbaa !658
  %9 = load i32, ptr %5, align 4, !tbaa !341
  %10 = call noundef i32 @_ZN9__gnu_cxx25__exchange_and_add_singleEPii(ptr noundef %8, i32 noundef %9)
  store i32 %10, ptr %3, align 4
  br label %15

11:                                               ; preds = %2
  %12 = load ptr, ptr %4, align 8, !tbaa !658
  %13 = load i32, ptr %5, align 4, !tbaa !341
  %14 = call noundef i32 @_ZN9__gnu_cxx18__exchange_and_addEPVii(ptr noundef %12, i32 noundef %13)
  store i32 %14, ptr %3, align 4
  br label %15

15:                                               ; preds = %11, %7
  %16 = load i32, ptr %3, align 4
  ret i32 %16
}

; Function Attrs: inlinehint mustprogress nounwind uwtable
define linkonce_odr void @_ZNSt16_Sp_counted_baseILN9__gnu_cxx12_Lock_policyE2EE10_M_releaseEv(ptr noundef nonnull align 8 dereferenceable(16) %0) #5 comdat align 2 personality ptr @__gxx_personality_v0 {
  %2 = alloca ptr, align 8
  %3 = alloca i8, align 1
  %4 = alloca i8, align 1
  %5 = alloca i8, align 1
  %6 = alloca i32, align 4
  %7 = alloca i32, align 4
  %8 = alloca i64, align 8
  %9 = alloca ptr, align 8
  %10 = alloca i64, align 8
  %11 = alloca i32, align 4
  store ptr %0, ptr %2, align 8, !tbaa !650
  %12 = load ptr, ptr %2, align 8
  call void @llvm.lifetime.start.p0(i64 1, ptr %3) #25
  store i8 1, ptr %3, align 1, !tbaa !47
  call void @llvm.lifetime.start.p0(i64 1, ptr %4) #25
  store i8 1, ptr %4, align 1, !tbaa !47
  call void @llvm.lifetime.start.p0(i64 1, ptr %5) #25
  store i8 1, ptr %5, align 1, !tbaa !47
  call void @llvm.lifetime.start.p0(i64 4, ptr %6) #25
  store i32 32, ptr %6, align 4, !tbaa !341
  call void @llvm.lifetime.start.p0(i64 4, ptr %7) #25
  store i32 32, ptr %7, align 4, !tbaa !341
  call void @llvm.lifetime.start.p0(i64 8, ptr %8) #25
  store i64 4294967297, ptr %8, align 8, !tbaa !651
  call void @llvm.lifetime.start.p0(i64 8, ptr %9) #25
  %13 = getelementptr inbounds nuw %"class.std::_Sp_counted_base", ptr %12, i32 0, i32 1
  store ptr %13, ptr %9, align 8, !tbaa !653
  %14 = load ptr, ptr %9, align 8, !tbaa !653
  %15 = load atomic i64, ptr %14 acquire, align 8
  store i64 %15, ptr %10, align 8
  %16 = load i64, ptr %10, align 8, !tbaa !651
  %17 = icmp eq i64 %16, 4294967297
  br i1 %17, label %18, label %27

18:                                               ; preds = %1
  %19 = getelementptr inbounds nuw %"class.std::_Sp_counted_base", ptr %12, i32 0, i32 1
  store i32 0, ptr %19, align 8, !tbaa !655
  %20 = getelementptr inbounds nuw %"class.std::_Sp_counted_base", ptr %12, i32 0, i32 2
  store i32 0, ptr %20, align 4, !tbaa !657
  %21 = load ptr, ptr %12, align 8, !tbaa !8
  %22 = getelementptr inbounds ptr, ptr %21, i64 2
  %23 = load ptr, ptr %22, align 8
  call void %23(ptr noundef nonnull align 8 dereferenceable(16) %12) #25
  %24 = load ptr, ptr %12, align 8, !tbaa !8
  %25 = getelementptr inbounds ptr, ptr %24, i64 3
  %26 = load ptr, ptr %25, align 8
  call void %26(ptr noundef nonnull align 8 dereferenceable(16) %12) #25
  store i32 1, ptr %11, align 4
  br label %35

27:                                               ; preds = %1
  %28 = getelementptr inbounds nuw %"class.std::_Sp_counted_base", ptr %12, i32 0, i32 1
  %29 = invoke noundef i32 @_ZN9__gnu_cxx27__exchange_and_add_dispatchEPii(ptr noundef %28, i32 noundef -1)
          to label %30 unwind label %41

30:                                               ; preds = %27
  %31 = icmp eq i32 %29, 1
  %32 = call i1 @llvm.expect.i1(i1 %31, i1 false)
  br i1 %32, label %33, label %34

33:                                               ; preds = %30
  call void @_ZNSt16_Sp_counted_baseILN9__gnu_cxx12_Lock_policyE2EE24_M_release_last_use_coldEv(ptr noundef nonnull align 8 dereferenceable(16) %12) #25
  store i32 1, ptr %11, align 4
  br label %35

34:                                               ; preds = %30
  store i32 0, ptr %11, align 4
  br label %35

35:                                               ; preds = %34, %33, %18
  call void @llvm.lifetime.end.p0(i64 8, ptr %9) #25
  call void @llvm.lifetime.end.p0(i64 8, ptr %8) #25
  call void @llvm.lifetime.end.p0(i64 4, ptr %7) #25
  call void @llvm.lifetime.end.p0(i64 4, ptr %6) #25
  %36 = load i32, ptr %11, align 4
  switch i32 %36, label %38 [
    i32 0, label %37
  ]

37:                                               ; preds = %35
  store i32 0, ptr %11, align 4
  br label %38

38:                                               ; preds = %37, %35
  call void @llvm.lifetime.end.p0(i64 1, ptr %5) #25
  call void @llvm.lifetime.end.p0(i64 1, ptr %4) #25
  call void @llvm.lifetime.end.p0(i64 1, ptr %3) #25
  %39 = load i32, ptr %11, align 4
  switch i32 %39, label %44 [
    i32 0, label %40
    i32 1, label %40
  ]

40:                                               ; preds = %38, %38
  ret void

41:                                               ; preds = %27
  %42 = landingpad { ptr, i32 }
          catch ptr null
  %43 = extractvalue { ptr, i32 } %42, 0
  call void @__clang_call_terminate(ptr %43) #26
  unreachable

44:                                               ; preds = %38
  unreachable
}

; Function Attrs: mustprogress nounwind uwtable
define linkonce_odr void @_ZNSt14__shared_countILN9__gnu_cxx12_Lock_policyE2EED2Ev(ptr noundef nonnull align 8 dereferenceable(8) %0) unnamed_addr #0 comdat align 2 {
  %2 = alloca ptr, align 8
  store ptr %0, ptr %2, align 8, !tbaa !647
  %3 = load ptr, ptr %2, align 8
  %4 = getelementptr inbounds nuw %"class.std::__shared_count", ptr %3, i32 0, i32 0
  %5 = load ptr, ptr %4, align 8, !tbaa !649
  %6 = icmp ne ptr %5, null
  br i1 %6, label %7, label %10

7:                                                ; preds = %1
  %8 = getelementptr inbounds nuw %"class.std::__shared_count", ptr %3, i32 0, i32 0
  %9 = load ptr, ptr %8, align 8, !tbaa !649
  call void @_ZNSt16_Sp_counted_baseILN9__gnu_cxx12_Lock_policyE2EE10_M_releaseEv(ptr noundef nonnull align 8 dereferenceable(16) %9) #25
  br label %10

10:                                               ; preds = %7, %1
  ret void
}

; Function Attrs: mustprogress nounwind uwtable
define linkonce_odr void @_ZNSt12__shared_ptrIN5osgeo4proj3crs13GeographicCRSELN9__gnu_cxx12_Lock_policyE2EED2Ev(ptr noundef nonnull align 8 dereferenceable(16) %0) unnamed_addr #0 comdat align 2 {
  %2 = alloca ptr, align 8
  store ptr %0, ptr %2, align 8, !tbaa !517
  %3 = load ptr, ptr %2, align 8
  %4 = getelementptr inbounds nuw %"class.std::__shared_ptr.223", ptr %3, i32 0, i32 1
  call void @_ZNSt14__shared_countILN9__gnu_cxx12_Lock_policyE2EED2Ev(ptr noundef nonnull align 8 dereferenceable(8) %4) #25
  ret void
}

; Function Attrs: inlinehint mustprogress nounwind uwtable
define linkonce_odr hidden void @_ZN7dropbox6oxygen2nnISt10shared_ptrIN5osgeo4proj3crs13GeographicCRSEEED2Ev(ptr noundef nonnull align 8 dereferenceable(16) %0) unnamed_addr #5 comdat align 2 {
  %2 = alloca ptr, align 8
  store ptr %0, ptr %2, align 8, !tbaa !334
  %3 = load ptr, ptr %2, align 8
  %4 = getelementptr inbounds nuw %"class.dropbox::oxygen::nn.321", ptr %3, i32 0, i32 0
  call void @_ZNSt12__shared_ptrIN5osgeo4proj3crs13GeographicCRSELN9__gnu_cxx12_Lock_policyE2EED2Ev(ptr noundef nonnull align 8 dereferenceable(16) %4) #25
  ret void
}

; Function Attrs: mustprogress nounwind uwtable
define linkonce_odr hidden void @_ZNSt15__new_allocatorIN7dropbox6oxygen2nnISt10shared_ptrIN5osgeo4proj3crs13GeographicCRSEEEEE7destroyIS9_EEvPT_(ptr noundef nonnull align 1 dereferenceable(1) %0, ptr noundef %1) #0 comdat align 2 {
  %3 = alloca ptr, align 8
  %4 = alloca ptr, align 8
  store ptr %0, ptr %3, align 8, !tbaa !980
  store ptr %1, ptr %4, align 8, !tbaa !334
  %5 = load ptr, ptr %4, align 8, !tbaa !334
  call void @_ZN7dropbox6oxygen2nnISt10shared_ptrIN5osgeo4proj3crs13GeographicCRSEEED2Ev(ptr noundef nonnull align 8 dereferenceable(16) %5) #25
  ret void
}

; Function Attrs: mustprogress nounwind uwtable
define linkonce_odr hidden void @_ZNSt16allocator_traitsISaIN7dropbox6oxygen2nnISt10shared_ptrIN5osgeo4proj3crs13GeographicCRSEEEEEE7destroyIS9_EEvRSA_PT_(ptr noundef nonnull align 1 dereferenceable(1) %0, ptr noundef %1) #0 comdat align 2 {
  %3 = alloca ptr, align 8
  %4 = alloca ptr, align 8
  store ptr %0, ptr %3, align 8, !tbaa !977
  store ptr %1, ptr %4, align 8, !tbaa !334
  %5 = load ptr, ptr %3, align 8, !tbaa !977
  %6 = load ptr, ptr %4, align 8, !tbaa !334
  call void @_ZNSt15__new_allocatorIN7dropbox6oxygen2nnISt10shared_ptrIN5osgeo4proj3crs13GeographicCRSEEEEE7destroyIS9_EEvPT_(ptr noundef nonnull align 1 dereferenceable(1) %5, ptr noundef %6) #25
  ret void
}

; Function Attrs: mustprogress nounwind uwtable
define linkonce_odr hidden void @_ZNSt6vectorIN7dropbox6oxygen2nnISt10shared_ptrIN5osgeo4proj3crs13GeographicCRSEEEESaIS9_EE8pop_backEv(ptr noundef nonnull align 8 dereferenceable(24) %0) #0 comdat align 2 {
  %2 = alloca ptr, align 8
  store ptr %0, ptr %2, align 8, !tbaa !539
  %3 = load ptr, ptr %2, align 8
  %4 = getelementptr inbounds nuw %"struct.std::_Vector_base.49", ptr %3, i32 0, i32 0
  %5 = getelementptr inbounds nuw %"struct.std::_Vector_base<dropbox::oxygen::nn<std::shared_ptr<osgeo::proj::crs::GeographicCRS>>, std::allocator<dropbox::oxygen::nn<std::shared_ptr<osgeo::proj::crs::GeographicCRS>>>>::_Vector_impl_data", ptr %4, i32 0, i32 1
  %6 = load ptr, ptr %5, align 8, !tbaa !975
  %7 = getelementptr inbounds %"class.dropbox::oxygen::nn.321", ptr %6, i32 -1
  store ptr %7, ptr %5, align 8, !tbaa !975
  %8 = getelementptr inbounds nuw %"struct.std::_Vector_base.49", ptr %3, i32 0, i32 0
  %9 = getelementptr inbounds nuw %"struct.std::_Vector_base.49", ptr %3, i32 0, i32 0
  %10 = getelementptr inbounds nuw %"struct.std::_Vector_base<dropbox::oxygen::nn<std::shared_ptr<osgeo::proj::crs::GeographicCRS>>, std::allocator<dropbox::oxygen::nn<std::shared_ptr<osgeo::proj::crs::GeographicCRS>>>>::_Vector_impl_data", ptr %9, i32 0, i32 1
  %11 = load ptr, ptr %10, align 8, !tbaa !975
  call void @_ZNSt16allocator_traitsISaIN7dropbox6oxygen2nnISt10shared_ptrIN5osgeo4proj3crs13GeographicCRSEEEEEE7destroyIS9_EEvRSA_PT_(ptr noundef nonnull align 1 dereferenceable(1) %8, ptr noundef %11) #25
  ret void
}

; Function Attrs: mustprogress nounwind uwtable
define internal void @_ZZN5osgeo4proj9operation26CoordinateOperationFactory7Private30createOperationsCompoundToGeogERKN7dropbox6oxygen2nnISt10shared_ptrINS0_3crs3CRSEEEERKNS0_4util8optionalINS0_6common9DataEpochEEESD_SK_RNS3_7ContextEPKNS8_11CompoundCRSEPKNS8_13GeographicCRSERSt6vectorINS6_IS7_INS1_19CoordinateOperationEEEESaISW_EEEN19SetGeogCRSOfVertCRSD2Ev(ptr noundef nonnull align 8 dereferenceable(9) %0) unnamed_addr #0 align 2 {
  %2 = alloca ptr, align 8
  store ptr %0, ptr %2, align 8, !tbaa !555
  %3 = load ptr, ptr %2, align 8
  %4 = getelementptr inbounds nuw %struct.SetGeogCRSOfVertCRS, ptr %3, i32 0, i32 1
  %5 = load i8, ptr %4, align 8, !tbaa !557, !range !45, !noundef !46
  %6 = trunc i8 %5 to i1
  br i1 %6, label %7, label %11

7:                                                ; preds = %1
  %8 = getelementptr inbounds nuw %struct.SetGeogCRSOfVertCRS, ptr %3, i32 0, i32 0
  %9 = load ptr, ptr %8, align 8, !tbaa !559
  %10 = getelementptr inbounds nuw %"struct.osgeo::proj::operation::CoordinateOperationFactory::Private::Context", ptr %9, i32 0, i32 9
  call void @_ZNSt6vectorIN7dropbox6oxygen2nnISt10shared_ptrIN5osgeo4proj3crs13GeographicCRSEEEESaIS9_EE8pop_backEv(ptr noundef nonnull align 8 dereferenceable(24) %10) #25
  br label %11

11:                                               ; preds = %7, %1
  ret void
}