; Function Attrs: mustprogress nounwind uwtable
define internal fastcc void @_ZZN5osgeo4proj9operation26CoordinateOperationFactory7Private30createOperationsCompoundToGeogERKN7dropbox6oxygen2nnISt10shared_ptrINS0_3crs3CRSEEEERKNS0_4util8optionalINS0_6common9DataEpochEEESD_SK_RNS3_7ContextEPKNS8_11CompoundCRSEPKNS8_13GeographicCRSERSt6vectorINS6_IS7_INS1_19CoordinateOperationEEEESaISW_EEEN19SetGeogCRSOfVertCRSD2Ev(ptr captures(none) %.0.val, i8 %.8.val) unnamed_addr #0 align 2 personality ptr @__gxx_personality_v0 {
  %1 = trunc nuw i8 %.8.val to i1
  br i1 %1, label %2, label %_ZNSt6vectorIN7dropbox6oxygen2nnISt10shared_ptrIN5osgeo4proj3crs13GeographicCRSEEEESaIS9_EE8pop_backEv.exit

2:                                                ; preds = %0
  %3 = getelementptr inbounds nuw i8, ptr %.0.val, i64 88
  %4 = load ptr, ptr %3, align 8, !tbaa !147
  %5 = getelementptr inbounds i8, ptr %4, i64 -16
  store ptr %5, ptr %3, align 8, !tbaa !147
  %6 = getelementptr inbounds i8, ptr %4, i64 -8
  %7 = load ptr, ptr %6, align 8, !tbaa !21
  %.not.i.i.i.i.i.i = icmp eq ptr %7, null
  br i1 %.not.i.i.i.i.i.i, label %_ZNSt6vectorIN7dropbox6oxygen2nnISt10shared_ptrIN5osgeo4proj3crs13GeographicCRSEEEESaIS9_EE8pop_backEv.exit, label %8

8:                                                ; preds = %2
  %9 = getelementptr inbounds nuw i8, ptr %7, i64 8
  %10 = load atomic i64, ptr %9 acquire, align 8
  %11 = icmp eq i64 %10, 4294967297
  %12 = trunc i64 %10 to i32
  br i1 %11, label %13, label %21

13:                                               ; preds = %8
  store i32 0, ptr %9, align 8, !tbaa !25
  %14 = getelementptr inbounds nuw i8, ptr %7, i64 12
  store i32 0, ptr %14, align 4, !tbaa !27
  %15 = load ptr, ptr %7, align 8, !tbaa !3
  %16 = getelementptr inbounds nuw i8, ptr %15, i64 16
  %17 = load ptr, ptr %16, align 8
  tail call void %17(ptr noundef nonnull align 8 dereferenceable(16) %7) #32
  %18 = load ptr, ptr %7, align 8, !tbaa !3
  %19 = getelementptr inbounds nuw i8, ptr %18, i64 24
  %20 = load ptr, ptr %19, align 8
  tail call void %20(ptr noundef nonnull align 8 dereferenceable(16) %7) #32
  br label %_ZNSt6vectorIN7dropbox6oxygen2nnISt10shared_ptrIN5osgeo4proj3crs13GeographicCRSEEEESaIS9_EE8pop_backEv.exit

21:                                               ; preds = %8
  %22 = load i8, ptr @__libc_single_threaded, align 1, !tbaa !22
  %.not.i.i.i.i.i.i.i = icmp eq i8 %22, 0
  br i1 %.not.i.i.i.i.i.i.i, label %25, label %23

23:                                               ; preds = %21
  %24 = add nsw i32 %12, -1
  store i32 %24, ptr %9, align 4, !tbaa !23
  br label %_ZN9__gnu_cxx27__exchange_and_add_dispatchEPii.exit.i.i.i.i.i.i.i

25:                                               ; preds = %21
  %26 = atomicrmw volatile add ptr %9, i32 -1 acq_rel, align 4
  br label %_ZN9__gnu_cxx27__exchange_and_add_dispatchEPii.exit.i.i.i.i.i.i.i

_ZN9__gnu_cxx27__exchange_and_add_dispatchEPii.exit.i.i.i.i.i.i.i: ; preds = %25, %23
  %.0.i.i.i.i.i.i.i.i = phi i32 [ %12, %23 ], [ %26, %25 ]
  %27 = icmp eq i32 %.0.i.i.i.i.i.i.i.i, 1
  br i1 %27, label %28, label %_ZNSt6vectorIN7dropbox6oxygen2nnISt10shared_ptrIN5osgeo4proj3crs13GeographicCRSEEEESaIS9_EE8pop_backEv.exit, !prof !28

28:                                               ; preds = %_ZN9__gnu_cxx27__exchange_and_add_dispatchEPii.exit.i.i.i.i.i.i.i
  tail call void @_ZNSt16_Sp_counted_baseILN9__gnu_cxx12_Lock_policyE2EE24_M_release_last_use_coldEv(ptr noundef nonnull align 8 dereferenceable(16) %7) #32
  br label %_ZNSt6vectorIN7dropbox6oxygen2nnISt10shared_ptrIN5osgeo4proj3crs13GeographicCRSEEEESaIS9_EE8pop_backEv.exit

_ZNSt6vectorIN7dropbox6oxygen2nnISt10shared_ptrIN5osgeo4proj3crs13GeographicCRSEEEESaIS9_EE8pop_backEv.exit: ; preds = %28, %_ZN9__gnu_cxx27__exchange_and_add_dispatchEPii.exit.i.i.i.i.i.i.i, %13, %2, %0
  ret void
}